; Function Attrs: mustprogress uwtable
define noundef double @_ZNK8QuantLib18YoYOptionletHelper12impliedQuoteEv(ptr nocapture noundef nonnull readonly align 8 dereferenceable(296) %this) unnamed_addr #8 align 2 {
entry:
  %yoyCapFloor_ = getelementptr inbounds nuw i8, ptr %this, i64 280
  %0 = load ptr, ptr %yoyCapFloor_, align 8, !tbaa !73
  %cmp.not.i = icmp eq ptr %0, null
  br i1 %cmp.not.i, label %cond.false.i, label %_ZNK5boost10shared_ptrIN8QuantLib20YoYInflationCapFloorEEptEv.exit, !prof !74

cond.false.i:                                     ; preds = %entry
  tail call void @_ZN5boost16assertion_failedEPKcS1_S1_l(ptr noundef nonnull @.str.11, ptr noundef nonnull @__PRETTY_FUNCTION__._ZNK5boost10shared_ptrIN8QuantLib20YoYInflationCapFloorEEptEv, ptr noundef nonnull @.str.12, i64 noundef 784)
  %.pre.i = load ptr, ptr %yoyCapFloor_, align 8, !tbaa !73
  br label %_ZNK5boost10shared_ptrIN8QuantLib20YoYInflationCapFloorEEptEv.exit

_ZNK5boost10shared_ptrIN8QuantLib20YoYInflationCapFloorEEptEv.exit: ; preds = %entry, %cond.false.i
  %1 = phi ptr [ %0, %entry ], [ %.pre.i, %cond.false.i ]
  %vtable = load ptr, ptr %1, align 8, !tbaa !35
  %vbase.offset.ptr = getelementptr i8, ptr %vtable, i64 -32
  %vbase.offset = load i64, ptr %vbase.offset.ptr, align 8
  %add.ptr = getelementptr inbounds i8, ptr %1, i64 %vbase.offset
  %vtable2 = load ptr, ptr %add.ptr, align 8, !tbaa !35
  %vfn = getelementptr inbounds i8, ptr %vtable2, i64 24
  %2 = load ptr, ptr %vfn, align 8
  tail call void %2(ptr noundef nonnull align 8 dereferenceable(56) %add.ptr)
  %3 = load ptr, ptr %yoyCapFloor_, align 8, !tbaa !73
  %cmp.not.i1 = icmp eq ptr %3, null
  br i1 %cmp.not.i1, label %cond.false.i2, label %_ZNK5boost10shared_ptrIN8QuantLib20YoYInflationCapFloorEEptEv.exit4, !prof !74

cond.false.i2:                                    ; preds = %_ZNK5boost10shared_ptrIN8QuantLib20YoYInflationCapFloorEEptEv.exit
  tail call void @_ZN5boost16assertion_failedEPKcS1_S1_l(ptr noundef nonnull @.str.11, ptr noundef nonnull @__PRETTY_FUNCTION__._ZNK5boost10shared_ptrIN8QuantLib20YoYInflationCapFloorEEptEv, ptr noundef nonnull @.str.12, i64 noundef 784)
  %.pre.i3 = load ptr, ptr %yoyCapFloor_, align 8, !tbaa !73
  br label %_ZNK5boost10shared_ptrIN8QuantLib20YoYInflationCapFloorEEptEv.exit4

_ZNK5boost10shared_ptrIN8QuantLib20YoYInflationCapFloorEEptEv.exit4: ; preds = %_ZNK5boost10shared_ptrIN8QuantLib20YoYInflationCapFloorEEptEv.exit, %cond.false.i2
  %4 = phi ptr [ %3, %_ZNK5boost10shared_ptrIN8QuantLib20YoYInflationCapFloorEEptEv.exit ], [ %.pre.i3, %cond.false.i2 ]
  %call5 = tail call noundef double @_ZNK8QuantLib10Instrument3NPVEv(ptr noundef nonnull align 8 dereferenceable(104) %4)
  ret double %call5
}